Microchip MPLAB XC8 Compiler V1.12 ()

Linker command line:

-W4 --edf=/opt/microchip/xc8/v1.12/dat/en_msgs.txt -cs \
  -h+dist/default/production/JSPIC-master.production.sym -z -Q18F2680 \
  -ol.obj -Mdist/default/production/JSPIC-master.production.map -E1 \
  -ver=XC8 -ACODE=00h-0FFFFh -ACONST=00h-0FFFFh \
  -ASMALLCONST=0D00h-0DFFhx243 -AMEDIUMCONST=0D00h-0FFFFh -ACOMRAM=01h-05Fh \
  -AABS1=00h-0CFFh -ABIGRAM=01h-0CFFh -ARAM=060h-0FFh,0100h-01FFhx12 \
  -ABANK0=060h-0FFh -ABANK1=0100h-01FFh -ABANK2=0200h-02FFh \
  -ABANK3=0300h-03FFh -ABANK4=0400h-04FFh -ABANK5=0500h-05FFh \
  -ABANK6=0600h-06FFh -ABANK7=0700h-07FFh -ABANK8=0800h-08FFh \
  -ABANK9=0900h-09FFh -ABANK10=0A00h-0AFFh -ABANK11=0B00h-0BFFh \
  -ABANK12=0C00h-0CFFh -ASFR=0D00h-0DFFhx2,0F00h-0F5Fh,0F60h-0FFFh \
  -preset_vec=00h,intcode=08h,intcodelo,powerup,init,end_init \
  -pramtop=0D00h -psmallconst=SMALLCONST -pmediumconst=MEDIUMCONST \
  -pconst=CONST -AFARRAM=00h-00h -ACONFIG=0300000h-030000Dh -pconfig=CONFIG \
  -AIDLOC=0200000h-0200007h -pidloc=IDLOC -AEEDATA=0F00000h-0F003FFh \
  -peeprom_data=EEDATA \
  -prdata=COMRAM,nvrram=COMRAM,nvbit=COMRAM,rbss=COMRAM,rbit=COMRAM \
  -pfarbss=FARRAM,fardata=FARRAM \
  -pintsave_regs=BIGRAM,bigbss=BIGRAM,bigdata=BIGRAM -pbss=RAM \
  -pidata=CODE,irdata=CODE,ibigdata=CODE,ifardata=CODE /tmp/cgtgnhszh.obj \
  dist/default/production/JSPIC-master.production.obj 

Object code version is 3.10

Machine type is 18F2680

Call graph: (short form)




                Name                               Link     Load   Length Selector   Space Scale
/tmp/cgtgnhszh.obj
                end_init                             18       18        4        4       0
                reset_vec                             0        0        4        0       0
                idloc                            200000   200000        8   200000       0
                config                           300000   300000        E   300000       0
dist/default/production/JSPIC-master.production.obj
                intcode                               8        8       10        4       0
                smallconst                          D00      D00       38      680       0
                text19                             129E     129E       6A      69C       0
                text18                             1366     1366       4A      69C       0
                text17                              F6A      F6A       B2      69C       0
                text16                             1308     1308       5E      69C       0
                text15                             140A     140A       16      69C       0
                text14                             1450     1450        4      69C       0
                text13                              D38      D38      166      69C       0
                intcode_body                       11B4     11B4       78      69C       0
                text11                             10AA     10AA       86      69C       0
                text10                             13D8     13D8       1C      69C       0
                text9                              144C     144C        4      69C       0
                text8                              1432     1432       12      69C       0
                text7                              1444     1444        8      69C       0
                text6                               E9E      E9E       CC      69C       0
                text5                              1420     1420       12      69C       0
                text4                              101C     101C       8E      69C       0
                text3                              1454     1454        2      69C       0
                text2                              1130     1130       84      69C       0
                text1                              13F4     13F4       16      69C       0
                text0                              13B0     13B0       28      69C       0
                cstackCOMRAM                         2E       2E       16        1       1
                bssBANK7                            700      700       C8      700       1
                bssBANK6                            600      600       C8      600       1
                bssBANK5                            500      500       C8      500       1
                bssBANK4                            400      400       D4      400       1
                bssBANK3                            300      300       C8      300       1
                bssBANK2                            200      200       C8      200       1
                bssBANK1                            100      100       C8      100       1
                bssBANK0                             60       60       64       60       1
                bssCOMRAM                             1        1       2D        1       1
                cinit                              122C     122C       72      69C       0

TOTAL           Name                               Link     Load   Length     Space
        CLASS   CODE           
                end_init                             18       18        4         0
                intcode                               8        8       10         0
                reset_vec                             0        0        4         0
                text19                             129E     129E       6A         0
                text18                             1366     1366       4A         0
                text17                              F6A      F6A       B2         0
                text16                             1308     1308       5E         0
                text15                             140A     140A       16         0
                text14                             1450     1450        4         0
                text13                              D38      D38      166         0
                intcode_body                       11B4     11B4       78         0
                text11                             10AA     10AA       86         0
                text10                             13D8     13D8       1C         0
                text9                              144C     144C        4         0
                text8                              1432     1432       12         0
                text7                              1444     1444        8         0
                text6                               E9E      E9E       CC         0
                text5                              1420     1420       12         0
                text4                              101C     101C       8E         0
                text3                              1454     1454        2         0
                text2                              1130     1130       84         0
                text1                              13F4     13F4       16         0
                text0                              13B0     13B0       28         0
                cinit                              122C     122C       72         0

        CLASS   CONST          

        CLASS   SMALLCONST     
                smallconst                          D00      D00       38         0

        CLASS   MEDIUMCONST    

        CLASS   COMRAM         
                cstackCOMRAM                         2E       2E       16         1
                bssCOMRAM                             1        1       2D         1

        CLASS   ABS1           

        CLASS   BIGRAM         

        CLASS   RAM            

        CLASS   BANK0          
                bssBANK0                             60       60       64         1

        CLASS   BANK1          
                bssBANK1                            100      100       C8         1

        CLASS   BANK2          
                bssBANK2                            200      200       C8         1

        CLASS   BANK3          
                bssBANK3                            300      300       C8         1

        CLASS   BANK4          
                bssBANK4                            400      400       D4         1

        CLASS   BANK5          
                bssBANK5                            500      500       C8         1

        CLASS   BANK6          
                bssBANK6                            600      600       C8         1

        CLASS   BANK7          
                bssBANK7                            700      700       C8         1

        CLASS   BANK8          

        CLASS   BANK9          

        CLASS   BANK10         

        CLASS   BANK11         

        CLASS   BANK12         

        CLASS   SFR            

        CLASS   FARRAM         

        CLASS   CONFIG         
                config                           300000   300000        E         0

        CLASS   IDLOC          
                idloc                            200000   200000        8         0

        CLASS   EEDATA         



SEGMENTS        Name                           Load    Length   Top    Selector   Space  Class

                reset_vec                      000000  000004  000004         0       0  CODE    
                bssCOMRAM                      000001  000043  000044         1       1  COMRAM  
                intcode                        000008  000014  00001C         4       0  CODE    
                bssBANK0                       000060  000064  0000C4        60       1  BANK0   
                bssBANK1                       000100  0000C8  0001C8       100       1  BANK1   
                bssBANK2                       000200  0000C8  0002C8       200       1  BANK2   
                bssBANK3                       000300  0000C8  0003C8       300       1  BANK3   
                bssBANK4                       000400  0000D4  0004D4       400       1  BANK4   
                bssBANK5                       000500  0000C8  0005C8       500       1  BANK5   
                bssBANK6                       000600  0000C8  0006C8       600       1  BANK6   
                bssBANK7                       000700  0000C8  0007C8       700       1  BANK7   
                smallconst                     000D00  000038  000D38       680       0  SMALLCON
                text13                         000D38  00071E  001456       69C       0  CODE    
                idloc                          200000  000008  200008    200000       0  IDLOC   
                config                         300000  00000E  30000E    300000       0  CONFIG  


UNUSED ADDRESS RANGES

        Name                Unused          Largest block    Delta
        BANK0            0000C4-0000FF               3C
        BANK1            0001C8-0001FF               38
        BANK10           000A00-000AFF              100
        BANK11           000B00-000BFF              100
        BANK12           000C00-000CFF              100
        BANK2            0002C8-0002FF               38
        BANK3            0003C8-0003FF               38
        BANK4            0004D4-0004FF               2C
        BANK5            0005C8-0005FF               38
        BANK6            0006C8-0006FF               38
        BANK7            0007C8-0007FF               38
        BANK8            000800-0008FF              100
        BANK9            000900-0009FF              100
        BIGRAM           000044-00005F               1C
                         0000C4-0000FF               3C
                         0001C8-0001FF               38
                         0002C8-0002FF               38
                         0003C8-0003FF               38
                         0004D4-0004FF               2C
                         0005C8-0005FF               38
                         0006C8-0006FF               38
                         0007C8-000CFF              538
        CODE             000004-000007                4
                         00001C-000CFF              CE4
                         001456-00FFFF             EBAA
        COMRAM           000044-00005F               1C
        CONST            000004-000007                4
                         00001C-000CFF              CE4
                         001456-00FFFF             EBAA
        EEDATA           F00000-F003FF              400
        MEDIUMCONST      001456-00FFFF             EBAA
        RAM              0000C4-0000FF               3C
                         0001C8-0001FF               38
                         0002C8-0002FF               38
                         0003C8-0003FF               38
                         0004D4-0004FF               2C
                         0005C8-0005FF               38
                         0006C8-0006FF               38
                         0007C8-000CFF              100
        SFR              000D00-000FFF              100
        SMALLCONST       001456-00FFFF              100

                                  Symbol Table

?_Async                          cstackCOMRAM 000032
?_SetInterval                    cstackCOMRAM 00003E
?___awmod                        cstackCOMRAM 00003E
?_strcpy2                        cstackCOMRAM 00002E
Async@function                   cstackCOMRAM 000032
Async@string                     cstackCOMRAM 000034
IntervalTick@time                bssCOMRAM    00000D
JWireOnInterrupt@data            cstackCOMRAM 000036
OnSerialInterrupt@data           cstackCOMRAM 000036
SetInterval@callbackToUse        cstackCOMRAM 000040
SetInterval@delayInMs            cstackCOMRAM 00003E
SetInterval@hasLoaded            bssCOMRAM    00002D
Sout@byte                        cstackCOMRAM 00003E
_Async                           text17       000F6A
_AsyncBegin                      text5        001420
_AsyncTick                       text4        00101C
_BRG16                           (abs)        007DC3
_BRGH                            (abs)        007D62
_CKP                             (abs)        007E34
_CREN                            (abs)        007D5C
_GIE                             (abs)        007F97
_INTCONbits                      (abs)        000FF2
_IntervalTick                    text6        000E9E
_JWireOnInterrupt                text13       000D38
_KEY_COLON_SPACE                 bssBANK5     000500
_LA2                             (abs)        007C4A
_MacawBegin                      text9        00144C
_OSCCONbits                      (abs)        000FD3
_OnIntervalInterrupt             text15       00140A
_OnSerialInterrupt               text16       001308
_PEIE                            (abs)        007F96
_PEN                             (abs)        007E2A
_RCIE                            (abs)        007CED
_RCIF                            (abs)        007CF5
_RCREG                           (abs)        000FAE
_RCSTA                           (abs)        000FAB
_RX9                             (abs)        007D5E
_SEN                             (abs)        007E28
_SENDB                           (abs)        007D63
_SMP                             (abs)        007E3F
_SPBRG                           (abs)        000FAF
_SPEN                            (abs)        007D5F
_SSPADD                          (abs)        000FC8
_SSPBUF                          (abs)        000FC9
_SSPEN                           (abs)        007E35
_SSPIE                           (abs)        007CEB
_SSPIF                           (abs)        007CF3
_SSPM0                           (abs)        007E30
_SSPM1                           (abs)        007E31
_SSPM2                           (abs)        007E32
_SSPM3                           (abs)        007E33
_SSPSTATbits                     (abs)        000FC7
_SYNC                            (abs)        007D64
_SerialWriteInterrupt            text19       00129E
_SetInterval                     text2        001130
_Sout                            text8        001432
_SuperSimpleSerialBegin          text10       0013D8
_T0CONbits                       (abs)        000FD5
_TRISA                           (abs)        000F92
_TRISB                           (abs)        000F93
_TRISC                           (abs)        000F94
_TRISCbits                       (abs)        000F94
_TX9                             (abs)        007D66
_TXEN                            (abs)        007D65
_TXIE                            (abs)        007CEC
_TXIF                            (abs)        007CF4
_TXREG                           (abs)        000FAD
_WireOnInterrupt                 text14       001450
__CFG_BBSIZ$1024                 (abs)        000000
__CFG_BOREN$OFF                  (abs)        000000
__CFG_BORV$3                     (abs)        000000
__CFG_FCMEN$OFF                  (abs)        000000
__CFG_IESO$OFF                   (abs)        000000
__CFG_LPT1OSC$OFF                (abs)        000000
__CFG_LVP$OFF                    (abs)        000000
__CFG_MCLRE$ON                   (abs)        000000
__CFG_OSC$IRCIO7                 (abs)        000000
__CFG_PBADEN$OFF                 (abs)        000000
__CFG_PWRT$OFF                   (abs)        000000
__CFG_STVREN$OFF                 (abs)        000000
__CFG_WDT$OFF                    (abs)        000000
__CFG_WDTPS$32768                (abs)        000000
__HRAM                           (abs)        000000
__Habs1                          abs1         000000
__Hbank0                         bank0        000000
__Hbank1                         bank1        000000
__Hbank10                        bank10       000000
__Hbank11                        bank11       000000
__Hbank12                        bank12       000000
__Hbank2                         bank2        000000
__Hbank3                         bank3        000000
__Hbank4                         bank4        000000
__Hbank5                         bank5        000000
__Hbank6                         bank6        000000
__Hbank7                         bank7        000000
__Hbank8                         bank8        000000
__Hbank9                         bank9        000000
__Hbigbss                        bigbss       000000
__Hbigdata                       bigdata      000000
__Hbigram                        bigram       000000
__Hbss                           bss          000000
__HbssBANK0                      bssBANK0     000000
__HbssBANK1                      bssBANK1     000000
__HbssBANK2                      bssBANK2     000000
__HbssBANK3                      bssBANK3     000000
__HbssBANK4                      bssBANK4     000000
__HbssBANK5                      bssBANK5     000000
__HbssBANK6                      bssBANK6     000000
__HbssBANK7                      bssBANK7     000000
__HbssCOMRAM                     bssCOMRAM    000000
__Hcinit                         cinit        000000
__Hclrtext                       clrtext      000000
__Hcomram                        comram       000000
__Hconfig                        config       30000E
__Hconst                         const        000000
__HcstackCOMRAM                  cstackCOMRAM 000000
__Hdata                          data         000000
__Heeprom_data                   eeprom_data  000000
__Hend_init                      end_init     00001C
__Hfarbss                        farbss       000000
__Hfardata                       fardata      000000
__Hibigdata                      ibigdata     000000
__Hidata                         idata        000000
__Hidloc                         idloc        200008
__Hifardata                      ifardata     000000
__Hinit                          init         000018
__Hintcode                       intcode      000018
__Hintcode_body                  intcode_body 000000
__Hintcodelo                     intcodelo    000018
__Hintentry                      intentry     000000
__Hintret                        intret       000000
__Hintsave_regs                  intsave_regs 000000
__Hirdata                        irdata       000000
__Hmediumconst                   mediumconst  000000
__Hnvbit                         nvbit        000000
__Hnvrram                        nvrram       000000
__Hparam                         rparam       000000
__Hpowerup                       powerup      000018
__Hram                           ram          000000
__Hramtop                        ramtop       000D00
__Hrbit                          rbit         000000
__Hrbss                          rbss         000000
__Hrdata                         rdata        000000
__Hreset_vec                     reset_vec    000004
__Hrparam                        rparam       000000
__Hsfr                           sfr          000000
__Hsmallconst                    smallconst   000D38
__Hstruct                        struct       000000
__Htemp                          temp         000000
__Htext                          text         000000
__Htext0                         text0        000000
__Htext1                         text1        000000
__Htext10                        text10       000000
__Htext11                        text11       000000
__Htext13                        text13       000000
__Htext14                        text14       000000
__Htext15                        text15       000000
__Htext16                        text16       000000
__Htext17                        text17       000000
__Htext18                        text18       000000
__Htext19                        text19       000000
__Htext2                         text2        000000
__Htext20                        text20       000000
__Htext3                         text3        000000
__Htext4                         text4        000000
__Htext5                         text5        000000
__Htext6                         text6        000000
__Htext7                         text7        000000
__Htext8                         text8        000000
__Htext9                         text9        000000
__LRAM                           (abs)        000001
__Labs1                          abs1         000000
__Lbank0                         bank0        000000
__Lbank1                         bank1        000000
__Lbank10                        bank10       000000
__Lbank11                        bank11       000000
__Lbank12                        bank12       000000
__Lbank2                         bank2        000000
__Lbank3                         bank3        000000
__Lbank4                         bank4        000000
__Lbank5                         bank5        000000
__Lbank6                         bank6        000000
__Lbank7                         bank7        000000
__Lbank8                         bank8        000000
__Lbank9                         bank9        000000
__Lbigbss                        bigbss       000000
__Lbigdata                       bigdata      000000
__Lbigram                        bigram       000000
__Lbss                           bss          000000
__LbssBANK0                      bssBANK0     000000
__LbssBANK1                      bssBANK1     000000
__LbssBANK2                      bssBANK2     000000
__LbssBANK3                      bssBANK3     000000
__LbssBANK4                      bssBANK4     000000
__LbssBANK5                      bssBANK5     000000
__LbssBANK6                      bssBANK6     000000
__LbssBANK7                      bssBANK7     000000
__LbssCOMRAM                     bssCOMRAM    000000
__Lcinit                         cinit        000000
__Lclrtext                       clrtext      000000
__Lcomram                        comram       000000
__Lconfig                        config       300000
__Lconst                         const        000000
__LcstackCOMRAM                  cstackCOMRAM 000000
__Ldata                          data         000000
__Leeprom_data                   eeprom_data  000000
__Lend_init                      end_init     000018
__Lfarbss                        farbss       000000
__Lfardata                       fardata      000000
__Libigdata                      ibigdata     000000
__Lidata                         idata        000000
__Lidloc                         idloc        200000
__Lifardata                      ifardata     000000
__Linit                          init         000018
__Lintcode                       intcode      000008
__Lintcode_body                  intcode_body 000000
__Lintcodelo                     intcodelo    000018
__Lintentry                      intentry     000000
__Lintret                        intret       000000
__Lintsave_regs                  intsave_regs 000000
__Lirdata                        irdata       000000
__Lmediumconst                   mediumconst  000000
__Lnvbit                         nvbit        000000
__Lnvrram                        nvrram       000000
__Lparam                         rparam       000000
__Lpowerup                       powerup      000018
__Lram                           ram          000000
__Lramtop                        ramtop       000D00
__Lrbit                          rbit         000000
__Lrbss                          rbss         000000
__Lrdata                         rdata        000000
__Lreset_vec                     reset_vec    000000
__Lrparam                        rparam       000000
__Lsfr                           sfr          000000
__Lsmallconst                    smallconst   000D00
__Lstruct                        struct       000000
__Ltemp                          temp         000000
__Ltext                          text         000000
__Ltext0                         text0        000000
__Ltext1                         text1        000000
__Ltext10                        text10       000000
__Ltext11                        text11       000000
__Ltext13                        text13       000000
__Ltext14                        text14       000000
__Ltext15                        text15       000000
__Ltext16                        text16       000000
__Ltext17                        text17       000000
__Ltext18                        text18       000000
__Ltext19                        text19       000000
__Ltext2                         text2        000000
__Ltext20                        text20       000000
__Ltext3                         text3        000000
__Ltext4                         text4        000000
__Ltext5                         text5        000000
__Ltext6                         text6        000000
__Ltext7                         text7        000000
__Ltext8                         text8        000000
__Ltext9                         text9        000000
__S0                             (abs)        30000E
__S1                             (abs)        0007C8
___awmod                         text11       0010AA
___awmod@counter                 cstackCOMRAM 000042
___awmod@dividend                cstackCOMRAM 00003E
___awmod@divisor                 cstackCOMRAM 000040
___awmod@sign                    cstackCOMRAM 000043
__accesstop                      (abs)        000060
__activetblptr                   (abs)        000003
__end_of_Async                   text17       00101C
__end_of_AsyncBegin              text5        001432
__end_of_AsyncTick               text4        0010AA
__end_of_IntervalTick            text6        000F6A
__end_of_JWireOnInterrupt        text13       000E9E
__end_of_MacawBegin              text9        001450
__end_of_OnIntervalInterrupt     text15       001420
__end_of_OnSerialInterrupt       text16       001366
__end_of_SerialWriteInterrupt    text19       001308
__end_of_SetInterval             text2        0011B4
__end_of_Sout                    text8        001444
__end_of_SuperSimpleSerialBegin  text10       0013F4
__end_of_WireOnInterrupt         text14       001454
__end_of___awmod                 text11       001130
__end_of__initialization         cinit        001298
__end_of__stringdata             smallconst   000D36
__end_of_main                    text1        0013F4
__end_of_onInterrupt             intcode_body 00122C
__end_of_onLoop                  text3        001456
__end_of_onSetup                 text1        00140A
__end_of_serialOut               text7        00144C
__end_of_strcpy2                 text18       0013B0
__initialization                 cinit        00122C
__mediumconst                    mediumconst  000000
__pbssBANK0                      bssBANK0     000060
__pbssBANK1                      bssBANK1     000100
__pbssBANK2                      bssBANK2     000200
__pbssBANK3                      bssBANK3     000300
__pbssBANK4                      bssBANK4     000400
__pbssBANK5                      bssBANK5     000500
__pbssBANK6                      bssBANK6     000600
__pbssBANK7                      bssBANK7     000700
__pbssCOMRAM                     bssCOMRAM    000001
__pcinit                         cinit        00122C
__pcstackCOMRAM                  cstackCOMRAM 00002E
__pintcode                       intcode      000008
__pintcode_body                  intcode_body 0011B4
__psmallconst                    smallconst   000D00
__ptext0                         text0        0013B0
__ptext1                         text1        0013F4
__ptext10                        text10       0013D8
__ptext11                        text11       0010AA
__ptext13                        text13       000D38
__ptext14                        text14       001450
__ptext15                        text15       00140A
__ptext16                        text16       001308
__ptext17                        text17       000F6A
__ptext18                        text18       001366
__ptext19                        text19       00129E
__ptext2                         text2        001130
__ptext20                        text20       000000
__ptext3                         text3        001454
__ptext4                         text4        00101C
__ptext5                         text5        001420
__ptext6                         text6        000E9E
__ptext7                         text7        001444
__ptext8                         text8        001432
__ptext9                         text9        00144C
__ramtop                         ramtop       000D00
__size_of_Async                  (abs)        000000
__size_of_AsyncBegin             (abs)        000000
__size_of_AsyncTick              (abs)        000000
__size_of_IntervalTick           (abs)        000000
__size_of_JWireOnInterrupt       (abs)        000000
__size_of_MacawBegin             (abs)        000000
__size_of_OnIntervalInterrupt    (abs)        000000
__size_of_OnSerialInterrupt      (abs)        000000
__size_of_SerialWriteInterrupt   (abs)        000000
__size_of_SetInterval            (abs)        000000
__size_of_Sout                   (abs)        000000
__size_of_SuperSimpleSerialBegin (abs)        000000
__size_of_WireOnInterrupt        (abs)        000000
__size_of___awmod                (abs)        000000
__size_of_main                   (abs)        000000
__size_of_onInterrupt            (abs)        000000
__size_of_onLoop                 (abs)        000000
__size_of_onSetup                (abs)        000000
__size_of_serialOut              (abs)        000000
__size_of_strcpy2                (abs)        000000
__smallconst                     smallconst   000D00
__stringdata                     smallconst   000D00
_buffer                          bssBANK0     000060
_bufferPosition                  bssCOMRAM    00000F
_bufferReadPos                   bssCOMRAM    000011
_bufferSerial                    bssBANK1     000100
_bufferWritePos                  bssCOMRAM    000013
_callback                        bssCOMRAM    000015
_callbackA                       bssCOMRAM    000017
_callbackAString                 bssBANK2     000200
_callbackB                       bssCOMRAM    000019
_callbackBString                 bssBANK2     000264
_callbackC                       bssCOMRAM    00001B
_callbackCString                 bssBANK3     000300
_callbackD                       bssCOMRAM    00001D
_callbackDString                 bssBANK3     000364
_isDoneTransmitting              bssCOMRAM    00001F
_jWireEnabled                    bssCOMRAM    000021
_locked                          bssCOMRAM    000023
_main                            text0        0013B0
_onInterrupt                     intcode      000008
_onLoop                          text3        001454
_onSetup                         text1        0013F4
_receiveCallback                 bssCOMRAM    000025
_requestCallback                 bssCOMRAM    000027
_result                          bssBANK6     000600
_serialOut                       text7        001444
_strcpy2                         text18       001366
_wireMasterEnabled               bssCOMRAM    000029
_wireSendA                       bssBANK4     000400
_wireSendB                       bssBANK4     00046A
_writeBuffer                     bssBANK1     000164
_writeBufferPosition             bssCOMRAM    00002B
end_of_initialization            cinit        001298
int_func                         intcode_body 0011B4
interval@callbackA               bssCOMRAM    000001
interval@callbackB               bssCOMRAM    000005
interval@callbackC               bssCOMRAM    000009
intlevel0                        text         000000
intlevel1                        text         000000
intlevel2                        text         000000
intlevel3                        text         000000
start                            init         000018
start_initialization             cinit        00122C
strcpy2@dest                     cstackCOMRAM 00002E
strcpy2@loc                      cstackCOMRAM 000030


FUNCTION INFORMATION:

 *************** function _main *****************
 Defined at:
		line 26 in file "jspic.c"
 Parameters:    Size  Location     Type
		None
 Auto vars:     Size  Location     Type
		None
 Return value:  Size  Location     Type
                  2  183[COMRAM] int 
 Registers used:
		wreg, fsr0l, fsr0h, fsr1l, fsr1h, fsr2l, fsr2h, status,2, status,0, pclat, tosl, structret, tblptrl, tblptrh, tblptru, prodl, prodh, bsr, cstack
 Tracked objects:
		On entry : 
		On exit  : 
		Unchanged: 
 Data sizes:     COMRAM   BANK0   BANK1   BANK2   BANK3   BANK4   BANK5   BANK6   BANK7   BANK8   BANK9  BANK10  BANK11  BANK12
      Params:         0       0       0       0       0       0       0       0       0       0       0       0       0       0
      Locals:         0       0       0       0       0       0       0       0       0       0       0       0       0       0
      Temps:          0       0       0       0       0       0       0       0       0       0       0       0       0       0
      Totals:         0       0       0       0       0       0       0       0       0       0       0       0       0       0
Total ram usage:        0 bytes
 Hardware stack levels required when called:    8
 This function calls:
		_MacawBegin
		_SuperSimpleSerialBegin
		_AsyncBegin
		_onSetup
		_onLoop
		_AsyncTick
 This function is called by:
		Startup code after reset
 This function uses a non-reentrant model


 *************** function _onSetup *****************
 Defined at:
		line 7 in file "main.c"
 Parameters:    Size  Location     Type
		None
 Auto vars:     Size  Location     Type
		None
 Return value:  Size  Location     Type
		None               void
 Registers used:
		wreg, status,2, status,0, cstack
 Tracked objects:
		On entry : 
		On exit  : 
		Unchanged: 
 Data sizes:     COMRAM   BANK0   BANK1   BANK2   BANK3   BANK4   BANK5   BANK6   BANK7   BANK8   BANK9  BANK10  BANK11  BANK12
      Params:         0       0       0       0       0       0       0       0       0       0       0       0       0       0
      Locals:         0       0       0       0       0       0       0       0       0       0       0       0       0       0
      Temps:          0       0       0       0       0       0       0       0       0       0       0       0       0       0
      Totals:         0       0       0       0       0       0       0       0       0       0       0       0       0       0
Total ram usage:        0 bytes
 Hardware stack levels used:    1
 Hardware stack levels required when called:    5
 This function calls:
		_SetInterval
 This function is called by:
		_main
 This function uses a non-reentrant model


 *************** function _SetInterval *****************
 Defined at:
		line 34 in file "interval.c"
 Parameters:    Size  Location     Type
  delayInMs       2   16[COMRAM] int 
  callbackToUs    2   18[COMRAM] PTR FTN()void 
		 -> serialOut(0), 
 Auto vars:     Size  Location     Type
		None
 Return value:  Size  Location     Type
		None               void
 Registers used:
		wreg, status,2, status,0
 Tracked objects:
		On entry : 
		On exit  : 
		Unchanged: 
 Data sizes:     COMRAM   BANK0   BANK1   BANK2   BANK3   BANK4   BANK5   BANK6   BANK7   BANK8   BANK9  BANK10  BANK11  BANK12
      Params:         4       0       0       0       0       0       0       0       0       0       0       0       0       0
      Locals:         0       0       0       0       0       0       0       0       0       0       0       0       0       0
      Temps:          0       0       0       0       0       0       0       0       0       0       0       0       0       0
      Totals:         4       0       0       0       0       0       0       0       0       0       0       0       0       0
Total ram usage:        4 bytes
 Hardware stack levels used:    1
 Hardware stack levels required when called:    4
 This function calls:
		Nothing
 This function is called by:
		_onSetup
 This function uses a non-reentrant model


 *************** function _onLoop *****************
 Defined at:
		line 11 in file "main.c"
 Parameters:    Size  Location     Type
		None
 Auto vars:     Size  Location     Type
		None
 Return value:  Size  Location     Type
		None               void
 Registers used:
		None
 Tracked objects:
		On entry : 
		On exit  : 
		Unchanged: 
 Data sizes:     COMRAM   BANK0   BANK1   BANK2   BANK3   BANK4   BANK5   BANK6   BANK7   BANK8   BANK9  BANK10  BANK11  BANK12
      Params:         0       0       0       0       0       0       0       0       0       0       0       0       0       0
      Locals:         0       0       0       0       0       0       0       0       0       0       0       0       0       0
      Temps:          0       0       0       0       0       0       0       0       0       0       0       0       0       0
      Totals:         0       0       0       0       0       0       0       0       0       0       0       0       0       0
Total ram usage:        0 bytes
 Hardware stack levels used:    1
 Hardware stack levels required when called:    4
 This function calls:
		Nothing
 This function is called by:
		_main
 This function uses a non-reentrant model


 *************** function _AsyncTick *****************
 Defined at:
		line 37 in file "async.c"
 Parameters:    Size  Location     Type
		None
 Auto vars:     Size  Location     Type
		None
 Return value:  Size  Location     Type
		None               void
 Registers used:
		wreg, fsr0l, fsr0h, fsr1l, fsr1h, fsr2l, fsr2h, status,2, status,0, pclat, tosl, structret, tblptrl, tblptrh, tblptru, prodl, prodh, bsr, cstack
 Tracked objects:
		On entry : 
		On exit  : 
		Unchanged: 
 Data sizes:     COMRAM   BANK0   BANK1   BANK2   BANK3   BANK4   BANK5   BANK6   BANK7   BANK8   BANK9  BANK10  BANK11  BANK12
      Params:         0       0       0       0       0       0       0       0       0       0       0       0       0       0
      Locals:         0       0       0       0       0       0       0       0       0       0       0       0       0       0
      Temps:          0       0       0       0       0       0       0       0       0       0       0       0       0       0
      Totals:         0       0       0       0       0       0       0       0       0       0       0       0       0       0
Total ram usage:        0 bytes
 Hardware stack levels used:    1
 Hardware stack levels required when called:    7
 This function calls:
		_IntervalTick
		Absolute function
		_AsyncBegin
 This function is called by:
		_main
 This function uses a non-reentrant model


 *************** function _AsyncBegin *****************
 Defined at:
		line 63 in file "async.c"
 Parameters:    Size  Location     Type
		None
 Auto vars:     Size  Location     Type
		None
 Return value:  Size  Location     Type
		None               void
 Registers used:
		None
 Tracked objects:
		On entry : 
		On exit  : 
		Unchanged: 
 Data sizes:     COMRAM   BANK0   BANK1   BANK2   BANK3   BANK4   BANK5   BANK6   BANK7   BANK8   BANK9  BANK10  BANK11  BANK12
      Params:         0       0       0       0       0       0       0       0       0       0       0       0       0       0
      Locals:         0       0       0       0       0       0       0       0       0       0       0       0       0       0
      Temps:          0       0       0       0       0       0       0       0       0       0       0       0       0       0
      Totals:         0       0       0       0       0       0       0       0       0       0       0       0       0       0
Total ram usage:        0 bytes
 Hardware stack levels used:    1
 Hardware stack levels required when called:    4
 This function calls:
		Nothing
 This function is called by:
		_AsyncTick
		_main
 This function uses a non-reentrant model


 *************** function _IntervalTick *****************
 Defined at:
		line 14 in file "interval.c"
 Parameters:    Size  Location     Type
		None
 Auto vars:     Size  Location     Type
		None
 Return value:  Size  Location     Type
		None               void
 Registers used:
		wreg, status,2, status,0, pclat, tosl, cstack
 Tracked objects:
		On entry : 
		On exit  : 
		Unchanged: 
 Data sizes:     COMRAM   BANK0   BANK1   BANK2   BANK3   BANK4   BANK5   BANK6   BANK7   BANK8   BANK9  BANK10  BANK11  BANK12
      Params:         0       0       0       0       0       0       0       0       0       0       0       0       0       0
      Locals:         0       0       0       0       0       0       0       0       0       0       0       0       0       0
      Temps:          0       0       0       0       0       0       0       0       0       0       0       0       0       0
      Totals:         0       0       0       0       0       0       0       0       0       0       0       0       0       0
Total ram usage:        0 bytes
 Hardware stack levels used:    1
 Hardware stack levels required when called:    6
 This function calls:
		___awmod
		Absolute function
		_serialOut
 This function is called by:
		_OnIntervalInterrupt
		_AsyncTick
 This function uses a non-reentrant model


 *************** function _serialOut *****************
 Defined at:
		line 3 in file "main.c"
 Parameters:    Size  Location     Type
		None
 Auto vars:     Size  Location     Type
		None
 Return value:  Size  Location     Type
		None               void
 Registers used:
		wreg, cstack
 Tracked objects:
		On entry : 
		On exit  : 
		Unchanged: 
 Data sizes:     COMRAM   BANK0   BANK1   BANK2   BANK3   BANK4   BANK5   BANK6   BANK7   BANK8   BANK9  BANK10  BANK11  BANK12
      Params:         0       0       0       0       0       0       0       0       0       0       0       0       0       0
      Locals:         0       0       0       0       0       0       0       0       0       0       0       0       0       0
      Temps:          0       0       0       0       0       0       0       0       0       0       0       0       0       0
      Totals:         0       0       0       0       0       0       0       0       0       0       0       0       0       0
Total ram usage:        0 bytes
 Hardware stack levels used:    1
 Hardware stack levels required when called:    5
 This function calls:
		_Sout
 This function is called by:
		_onSetup
		_IntervalTick
 This function uses a non-reentrant model


 *************** function _Sout *****************
 Defined at:
		line 21 in file "superSimpleSerial.c"
 Parameters:    Size  Location     Type
  byte            1    wreg     unsigned char 
 Auto vars:     Size  Location     Type
  byte            1   16[COMRAM] unsigned char 
 Return value:  Size  Location     Type
		None               void
 Registers used:
		wreg
 Tracked objects:
		On entry : 
		On exit  : 
		Unchanged: 
 Data sizes:     COMRAM   BANK0   BANK1   BANK2   BANK3   BANK4   BANK5   BANK6   BANK7   BANK8   BANK9  BANK10  BANK11  BANK12
      Params:         0       0       0       0       0       0       0       0       0       0       0       0       0       0
      Locals:         1       0       0       0       0       0       0       0       0       0       0       0       0       0
      Temps:          0       0       0       0       0       0       0       0       0       0       0       0       0       0
      Totals:         1       0       0       0       0       0       0       0       0       0       0       0       0       0
Total ram usage:        1 bytes
 Hardware stack levels used:    1
 Hardware stack levels required when called:    4
 This function calls:
		Nothing
 This function is called by:
		_serialOut
 This function uses a non-reentrant model


 *************** function _MacawBegin *****************
 Defined at:
		line 3 in file "macaw.c"
 Parameters:    Size  Location     Type
		None
 Auto vars:     Size  Location     Type
		None
 Return value:  Size  Location     Type
		None               void
 Registers used:
		None
 Tracked objects:
		On entry : 
		On exit  : 
		Unchanged: 
 Data sizes:     COMRAM   BANK0   BANK1   BANK2   BANK3   BANK4   BANK5   BANK6   BANK7   BANK8   BANK9  BANK10  BANK11  BANK12
      Params:         0       0       0       0       0       0       0       0       0       0       0       0       0       0
      Locals:         0       0       0       0       0       0       0       0       0       0       0       0       0       0
      Temps:          0       0       0       0       0       0       0       0       0       0       0       0       0       0
      Totals:         0       0       0       0       0       0       0       0       0       0       0       0       0       0
Total ram usage:        0 bytes
 Hardware stack levels used:    1
 Hardware stack levels required when called:    4
 This function calls:
		Nothing
 This function is called by:
		_main
 This function uses a non-reentrant model


 *************** function _SuperSimpleSerialBegin *****************
 Defined at:
		line 3 in file "superSimpleSerial.c"
 Parameters:    Size  Location     Type
		None
 Auto vars:     Size  Location     Type
		None
 Return value:  Size  Location     Type
		None               void
 Registers used:
		wreg, status,2
 Tracked objects:
		On entry : 
		On exit  : 
		Unchanged: 
 Data sizes:     COMRAM   BANK0   BANK1   BANK2   BANK3   BANK4   BANK5   BANK6   BANK7   BANK8   BANK9  BANK10  BANK11  BANK12
      Params:         0       0       0       0       0       0       0       0       0       0       0       0       0       0
      Locals:         0       0       0       0       0       0       0       0       0       0       0       0       0       0
      Temps:          0       0       0       0       0       0       0       0       0       0       0       0       0       0
      Totals:         0       0       0       0       0       0       0       0       0       0       0       0       0       0
Total ram usage:        0 bytes
 Hardware stack levels used:    1
 Hardware stack levels required when called:    4
 This function calls:
		Nothing
 This function is called by:
		_main
 This function uses a non-reentrant model


 *************** function ___awmod *****************
 Defined at:
		line 10 in file "/opt/microchip/xc8/v1.12/sources/awmod.c"
 Parameters:    Size  Location     Type
  dividend        2   16[COMRAM] int 
  divisor         2   18[COMRAM] int 
 Auto vars:     Size  Location     Type
  sign            1   21[COMRAM] unsigned char 
  counter         1   20[COMRAM] unsigned char 
 Return value:  Size  Location     Type
                  2   16[COMRAM] int 
 Registers used:
		wreg, status,2, status,0
 Tracked objects:
		On entry : 
		On exit  : 
		Unchanged: 
 Data sizes:     COMRAM   BANK0   BANK1   BANK2   BANK3   BANK4   BANK5   BANK6   BANK7   BANK8   BANK9  BANK10  BANK11  BANK12
      Params:         4       0       0       0       0       0       0       0       0       0       0       0       0       0
      Locals:         2       0       0       0       0       0       0       0       0       0       0       0       0       0
      Temps:          0       0       0       0       0       0       0       0       0       0       0       0       0       0
      Totals:         6       0       0       0       0       0       0       0       0       0       0       0       0       0
Total ram usage:        6 bytes
 Hardware stack levels used:    1
 Hardware stack levels required when called:    4
 This function calls:
		Nothing
 This function is called by:
		_IntervalTick
 This function uses a non-reentrant model


 *************** function _onInterrupt *****************
 Defined at:
		line 3 in file "interrupts.c"
 Parameters:    Size  Location     Type
		None
 Auto vars:     Size  Location     Type
		None
 Return value:  Size  Location     Type
		None               void
 Registers used:
		wreg, fsr1l, fsr1h, fsr2l, fsr2h, status,2, status,0, pclat, tosl, cstack
 Tracked objects:
		On entry : 
		On exit  : 
		Unchanged: 
 Data sizes:     COMRAM   BANK0   BANK1   BANK2   BANK3   BANK4   BANK5   BANK6   BANK7   BANK8   BANK9  BANK10  BANK11  BANK12
      Params:         0       0       0       0       0       0       0       0       0       0       0       0       0       0
      Locals:         0       0       0       0       0       0       0       0       0       0       0       0       0       0
      Temps:          6       0       0       0       0       0       0       0       0       0       0       0       0       0
      Totals:         6       0       0       0       0       0       0       0       0       0       0       0       0       0
Total ram usage:        6 bytes
 Hardware stack levels used:    1
 Hardware stack levels required when called:    3
 This function calls:
		_JWireOnInterrupt
		_WireOnInterrupt
		_OnIntervalInterrupt
		_OnSerialInterrupt
		_SerialWriteInterrupt
 This function is called by:
		Interrupt level 2
 This function uses a non-reentrant model


 *************** function _JWireOnInterrupt *****************
 Defined at:
		line 25 in file "jwire.c"
 Parameters:    Size  Location     Type
		None
 Auto vars:     Size  Location     Type
  data            2    8[COMRAM] int 
  addr            2    0        int 
 Return value:  Size  Location     Type
		None               void
 Registers used:
		wreg, fsr1l, fsr1h, fsr2l, fsr2h, status,2, status,0, pclat, tosl, cstack
 Tracked objects:
		On entry : 
		On exit  : 
		Unchanged: 
 Data sizes:     COMRAM   BANK0   BANK1   BANK2   BANK3   BANK4   BANK5   BANK6   BANK7   BANK8   BANK9  BANK10  BANK11  BANK12
      Params:         0       0       0       0       0       0       0       0       0       0       0       0       0       0
      Locals:         2       0       0       0       0       0       0       0       0       0       0       0       0       0
      Temps:          0       0       0       0       0       0       0       0       0       0       0       0       0       0
      Totals:         2       0       0       0       0       0       0       0       0       0       0       0       0       0
Total ram usage:        2 bytes
 Hardware stack levels used:    1
 Hardware stack levels required when called:    2
 This function calls:
		_Async
		Absolute function
 This function is called by:
		_onInterrupt
 This function uses a non-reentrant model


 *************** function _WireOnInterrupt *****************
 Defined at:
		line 81 in file "wireMaster.c"
 Parameters:    Size  Location     Type
		None
 Auto vars:     Size  Location     Type
		None
 Return value:  Size  Location     Type
		None               void
 Registers used:
		None
 Tracked objects:
		On entry : 
		On exit  : 
		Unchanged: 
 Data sizes:     COMRAM   BANK0   BANK1   BANK2   BANK3   BANK4   BANK5   BANK6   BANK7   BANK8   BANK9  BANK10  BANK11  BANK12
      Params:         0       0       0       0       0       0       0       0       0       0       0       0       0       0
      Locals:         0       0       0       0       0       0       0       0       0       0       0       0       0       0
      Temps:          0       0       0       0       0       0       0       0       0       0       0       0       0       0
      Totals:         0       0       0       0       0       0       0       0       0       0       0       0       0       0
Total ram usage:        0 bytes
 Hardware stack levels used:    1
 This function calls:
		Nothing
 This function is called by:
		_onInterrupt
 This function uses a non-reentrant model


 *************** function _OnIntervalInterrupt *****************
 Defined at:
		line 29 in file "interval.c"
 Parameters:    Size  Location     Type
		None
 Auto vars:     Size  Location     Type
		None
 Return value:  Size  Location     Type
		None               void
 Registers used:
		wreg, fsr1l, fsr1h, fsr2l, fsr2h, status,2, status,0, cstack
 Tracked objects:
		On entry : 
		On exit  : 
		Unchanged: 
 Data sizes:     COMRAM   BANK0   BANK1   BANK2   BANK3   BANK4   BANK5   BANK6   BANK7   BANK8   BANK9  BANK10  BANK11  BANK12
      Params:         0       0       0       0       0       0       0       0       0       0       0       0       0       0
      Locals:         0       0       0       0       0       0       0       0       0       0       0       0       0       0
      Temps:          0       0       0       0       0       0       0       0       0       0       0       0       0       0
      Totals:         0       0       0       0       0       0       0       0       0       0       0       0       0       0
Total ram usage:        0 bytes
 Hardware stack levels used:    1
 Hardware stack levels required when called:    2
 This function calls:
		_Async
 This function is called by:
		_onInterrupt
 This function uses a non-reentrant model


 *************** function _OnSerialInterrupt *****************
 Defined at:
		line 12 in file "serial.c"
 Parameters:    Size  Location     Type
		None
 Auto vars:     Size  Location     Type
  data            1    8[COMRAM] unsigned char 
  err             1    0        unsigned char 
 Return value:  Size  Location     Type
		None               void
 Registers used:
		wreg, fsr1l, fsr1h, fsr2l, fsr2h, status,2, status,0, cstack
 Tracked objects:
		On entry : 
		On exit  : 
		Unchanged: 
 Data sizes:     COMRAM   BANK0   BANK1   BANK2   BANK3   BANK4   BANK5   BANK6   BANK7   BANK8   BANK9  BANK10  BANK11  BANK12
      Params:         0       0       0       0       0       0       0       0       0       0       0       0       0       0
      Locals:         1       0       0       0       0       0       0       0       0       0       0       0       0       0
      Temps:          0       0       0       0       0       0       0       0       0       0       0       0       0       0
      Totals:         1       0       0       0       0       0       0       0       0       0       0       0       0       0
Total ram usage:        1 bytes
 Hardware stack levels used:    1
 Hardware stack levels required when called:    2
 This function calls:
		_Async
 This function is called by:
		_onInterrupt
 This function uses a non-reentrant model


 *************** function _Async *****************
 Defined at:
		line 20 in file "async.c"
 Parameters:    Size  Location     Type
  function        2    4[COMRAM] PTR FTN()void 
		 -> IntervalTick(0), Absolute function(0), 
  string          2    6[COMRAM] PTR unsigned char 
		 -> bufferSerial(100), buffer(100), NULL(0), 
 Auto vars:     Size  Location     Type
		None
 Return value:  Size  Location     Type
		None               void
 Registers used:
		wreg, fsr1l, fsr1h, fsr2l, fsr2h, status,2, status,0, cstack
 Tracked objects:
		On entry : 
		On exit  : 
		Unchanged: 
 Data sizes:     COMRAM   BANK0   BANK1   BANK2   BANK3   BANK4   BANK5   BANK6   BANK7   BANK8   BANK9  BANK10  BANK11  BANK12
      Params:         4       0       0       0       0       0       0       0       0       0       0       0       0       0
      Locals:         0       0       0       0       0       0       0       0       0       0       0       0       0       0
      Temps:          0       0       0       0       0       0       0       0       0       0       0       0       0       0
      Totals:         4       0       0       0       0       0       0       0       0       0       0       0       0       0
Total ram usage:        4 bytes
 Hardware stack levels used:    1
 Hardware stack levels required when called:    1
 This function calls:
		_strcpy2
 This function is called by:
		_OnIntervalInterrupt
		_JWireOnInterrupt
		_OnSerialInterrupt
 This function uses a non-reentrant model


 *************** function _strcpy2 *****************
 Defined at:
		line 3 in file "string2.c"
 Parameters:    Size  Location     Type
  dest            2    0[COMRAM] PTR unsigned char 
		 -> buffer(100), KEY_COLON_SPACE(200), callbackDString(100), callbackCString(100), 
		 -> callbackBString(100), callbackAString(100), 
  loc             2    2[COMRAM] PTR const unsigned char 
		 -> bufferSerial(100), buffer(100), result(200), NULL(0), 
 Auto vars:     Size  Location     Type
		None
 Return value:  Size  Location     Type
		None               void
 Registers used:
		wreg, fsr1l, fsr1h, fsr2l, fsr2h, status,2, status,0
 Tracked objects:
		On entry : 
		On exit  : 
		Unchanged: 
 Data sizes:     COMRAM   BANK0   BANK1   BANK2   BANK3   BANK4   BANK5   BANK6   BANK7   BANK8   BANK9  BANK10  BANK11  BANK12
      Params:         4       0       0       0       0       0       0       0       0       0       0       0       0       0
      Locals:         0       0       0       0       0       0       0       0       0       0       0       0       0       0
      Temps:          0       0       0       0       0       0       0       0       0       0       0       0       0       0
      Totals:         4       0       0       0       0       0       0       0       0       0       0       0       0       0
Total ram usage:        4 bytes
 Hardware stack levels used:    1
 This function calls:
		Nothing
 This function is called by:
		_Async
 This function uses a non-reentrant model


 *************** function _SerialWriteInterrupt *****************
 Defined at:
		line 86 in file "serial.c"
 Parameters:    Size  Location     Type
		None
 Auto vars:     Size  Location     Type
		None
 Return value:  Size  Location     Type
		None               void
 Registers used:
		wreg, fsr2l, fsr2h, status,2, status,0
 Tracked objects:
		On entry : 
		On exit  : 
		Unchanged: 
 Data sizes:     COMRAM   BANK0   BANK1   BANK2   BANK3   BANK4   BANK5   BANK6   BANK7   BANK8   BANK9  BANK10  BANK11  BANK12
      Params:         0       0       0       0       0       0       0       0       0       0       0       0       0       0
      Locals:         0       0       0       0       0       0       0       0       0       0       0       0       0       0
      Temps:          0       0       0       0       0       0       0       0       0       0       0       0       0       0
      Totals:         0       0       0       0       0       0       0       0       0       0       0       0       0       0
Total ram usage:        0 bytes
 Hardware stack levels used:    1
 This function calls:
		Nothing
 This function is called by:
		_onInterrupt
 This function uses a non-reentrant model



MODULE INFORMATION

Module		Function		Class		Link	Load	Size
string2.c
		_strcpy2       		CODE           	1366	0000	74

string2.c estimated size: 74

async.c
		_AsyncTick     		CODE           	101C	0000	142
		_AsyncBegin    		CODE           	1420	0000	18
		_Async         		CODE           	0F6A	0000	178

async.c estimated size: 338

shared
		__stringdata   		SMALLCONST     	0D00	0000	54
		__initializatio		CODE           	122C	0000	108

shared estimated size: 162

macaw.c
		_MacawBegin    		CODE           	144C	0000	4

macaw.c estimated size: 4

jspic.c
		_main          		CODE           	13B0	0000	68

jspic.c estimated size: 68

main.c
		_onLoop        		CODE           	1454	0000	2
		_onSetup       		CODE           	13F4	0000	22
		_serialOut     		CODE           	1444	0000	8

main.c estimated size: 32

interrupts.c
		_onInterrupt   		CODE           	0008	0000	4644

interrupts.c estimated size: 4644

serial.c
		_SerialWriteInt		CODE           	129E	0000	106
		_OnSerialInterr		CODE           	1308	0000	94

serial.c estimated size: 200

/opt/microchip/xc8/v1.12/sources/awmod.c
		___awmod       		CODE           	10AA	0000	134

/opt/microchip/xc8/v1.12/sources/awmod.c estimated size: 134

wireMaster.c
		_WireOnInterrup		CODE           	1450	0000	4

wireMaster.c estimated size: 4

interval.c
		_SetInterval   		CODE           	1130	0000	132
		_OnIntervalInte		CODE           	140A	0000	22
		_IntervalTick  		CODE           	0E9E	0000	204

interval.c estimated size: 358

superSimpleSerial.c
		_SuperSimpleSer		CODE           	13D8	0000	28
		_Sout          		CODE           	1432	0000	18

superSimpleSerial.c estimated size: 46

jwire.c
		_JWireOnInterru		CODE           	0D38	0000	358

jwire.c estimated size: 358

